; Function Attrs: mustprogress uwtable
define hidden void @_ZN11func_interp9del_entryEj(ptr nocapture noundef nonnull readonly align 8 dereferenceable(56) %this, i32 noundef %idx) local_unnamed_addr #3 align 2 {
_ZN6vectorIP10func_entryLb0EjE4backEv.exit:
  %m_entries = getelementptr inbounds i8, ptr %this, i64 16
  %0 = load ptr, ptr %m_entries, align 8
  %idxprom.i = zext i32 %idx to i64
  %arrayidx.i = getelementptr inbounds ptr, ptr %0, i64 %idxprom.i
  %1 = load ptr, ptr %arrayidx.i, align 8
  %arrayidx.i.i = getelementptr inbounds i8, ptr %0, i64 -4
  %2 = load i32, ptr %arrayidx.i.i, align 4
  %3 = add i32 %2, -1
  %4 = zext i32 %3 to i64
  %arrayidx.i1.i = getelementptr inbounds ptr, ptr %0, i64 %4
  %5 = load ptr, ptr %arrayidx.i1.i, align 8
  store ptr %5, ptr %arrayidx.i, align 8
  %6 = load ptr, ptr %m_entries, align 8
  %arrayidx.i4 = getelementptr inbounds i8, ptr %6, i64 -4
  %7 = load i32, ptr %arrayidx.i4, align 4
  %dec.i = add i32 %7, -1
  store i32 %dec.i, ptr %arrayidx.i4, align 4
  %8 = load ptr, ptr %this, align 8
  %m_arity = getelementptr inbounds i8, ptr %this, i64 8
  %9 = load i32, ptr %m_arity, align 8
  %cmp13.not.i = icmp eq i32 %9, 0
  br i1 %cmp13.not.i, label %for.end.i, label %for.body.lr.ph.i

for.body.lr.ph.i:                                 ; preds = %_ZN6vectorIP10func_entryLb0EjE4backEv.exit
  %m_args.i = getelementptr inbounds i8, ptr %1, i64 16
  %wide.trip.count.i = zext i32 %9 to i64
  br label %for.body.i

for.body.i:                                       ; preds = %_ZN11ast_manager7dec_refEP3ast.exit.i, %for.body.lr.ph.i
  %indvars.iv.i = phi i64 [ 0, %for.body.lr.ph.i ], [ %indvars.iv.next.i, %_ZN11ast_manager7dec_refEP3ast.exit.i ]
  %arrayidx.i5 = getelementptr inbounds [0 x ptr], ptr %m_args.i, i64 0, i64 %indvars.iv.i
  %10 = load ptr, ptr %arrayidx.i5, align 8
  %tobool.not.i.i = icmp eq ptr %10, null
  br i1 %tobool.not.i.i, label %_ZN11ast_manager7dec_refEP3ast.exit.i, label %if.then.i.i

if.then.i.i:                                      ; preds = %for.body.i
  %m_ref_count.i.i.i = getelementptr inbounds i8, ptr %10, i64 8
  %11 = load i32, ptr %m_ref_count.i.i.i, align 4
  %dec.i.i.i = add i32 %11, -1
  store i32 %dec.i.i.i, ptr %m_ref_count.i.i.i, align 4
  %cmp.i.i6 = icmp eq i32 %dec.i.i.i, 0
  br i1 %cmp.i.i6, label %if.then2.i.i, label %_ZN11ast_manager7dec_refEP3ast.exit.i

if.then2.i.i:                                     ; preds = %if.then.i.i
  tail call void @_ZN11ast_manager11delete_nodeEP3ast(ptr noundef nonnull align 8 dereferenceable(976) %8, ptr noundef nonnull %10)
  br label %_ZN11ast_manager7dec_refEP3ast.exit.i

_ZN11ast_manager7dec_refEP3ast.exit.i:            ; preds = %if.then2.i.i, %if.then.i.i, %for.body.i
  %indvars.iv.next.i = add nuw nsw i64 %indvars.iv.i, 1
  %exitcond.not.i = icmp eq i64 %indvars.iv.next.i, %wide.trip.count.i
  br i1 %exitcond.not.i, label %for.end.i, label %for.body.i, !llvm.loop !7

for.end.i:                                        ; preds = %_ZN11ast_manager7dec_refEP3ast.exit.i, %_ZN6vectorIP10func_entryLb0EjE4backEv.exit
  %m_result.i = getelementptr inbounds i8, ptr %1, i64 8
  %12 = load ptr, ptr %m_result.i, align 8
  %tobool.not.i6.i = icmp eq ptr %12, null
  br i1 %tobool.not.i6.i, label %_ZN10func_entry10deallocateER11ast_managerj.exit, label %if.then.i7.i

if.then.i7.i:                                     ; preds = %for.end.i
  %m_ref_count.i.i8.i = getelementptr inbounds i8, ptr %12, i64 8
  %13 = load i32, ptr %m_ref_count.i.i8.i, align 4
  %dec.i.i9.i = add i32 %13, -1
  store i32 %dec.i.i9.i, ptr %m_ref_count.i.i8.i, align 4
  %cmp.i10.i = icmp eq i32 %dec.i.i9.i, 0
  br i1 %cmp.i10.i, label %if.then2.i11.i, label %_ZN10func_entry10deallocateER11ast_managerj.exit

if.then2.i11.i:                                   ; preds = %if.then.i7.i
  tail call void @_ZN11ast_manager11delete_nodeEP3ast(ptr noundef nonnull align 8 dereferenceable(976) %8, ptr noundef nonnull %12)
  br label %_ZN10func_entry10deallocateER11ast_managerj.exit

_ZN10func_entry10deallocateER11ast_managerj.exit: ; preds = %for.end.i, %if.then.i7.i, %if.then2.i11.i
  %m_alloc.i.i = getelementptr inbounds i8, ptr %8, i64 40
  %mul.i.i = shl i32 %9, 3
  %add.i.i = add i32 %mul.i.i, 16
  %conv.i = zext i32 %add.i.i to i64
  tail call void @_ZN22small_object_allocator10deallocateEmPv(ptr noundef nonnull align 8 dereferenceable(520) %m_alloc.i.i, i64 noundef %conv.i, ptr noundef nonnull %1)
  ret void
}